target datalayout = "e-m:e-p270:32:32-p271:32:32-p272:64:64-i64:64-i128:128-f80:128-n8:16:32:64-S128"
target triple = "x86_64-pc-linux-gnu"

%struct.OSQPVectori_ = type { ptr, i64 }

; Function Attrs: nounwind uwtable
define void @OSQPVectori_from_raw(ptr noundef %0, ptr noundef %1) #0 {
  %3 = alloca ptr, align 8
  %4 = alloca ptr, align 8
  %5 = alloca i64, align 8
  %6 = alloca i64, align 8
  %7 = alloca ptr, align 8
  store ptr %0, ptr %3, align 8
  store ptr %1, ptr %4, align 8
  %8 = load ptr, ptr %3, align 8
  %9 = getelementptr inbounds %struct.OSQPVectori_, ptr %8, i32 0, i32 1
  %10 = load i64, ptr %9, align 8
  store i64 %10, ptr %6, align 8
  %11 = load ptr, ptr %3, align 8
  %12 = getelementptr inbounds %struct.OSQPVectori_, ptr %11, i32 0, i32 0
  %13 = load ptr, ptr %12, align 8
  store ptr %13, ptr %7, align 8
  store i64 0, ptr %5, align 8
  br label %14

14:                                               ; preds = %26, %2
  %15 = load i64, ptr %5, align 8
  %16 = load i64, ptr %6, align 8
  %17 = icmp slt i64 %15, %16
  br i1 %17, label %18, label %29

18:                                               ; preds = %14
  %19 = load ptr, ptr %4, align 8
  %20 = load i64, ptr %5, align 8
  %21 = getelementptr inbounds i64, ptr %19, i64 %20
  %22 = load i64, ptr %21, align 8
  %23 = load ptr, ptr %7, align 8
  %24 = load i64, ptr %5, align 8
  %25 = getelementptr inbounds i64, ptr %23, i64 %24
  store i64 %22, ptr %25, align 8
  br label %26

26:                                               ; preds = %18
  %27 = load i64, ptr %5, align 8
  %28 = add nsw i64 %27, 1
  store i64 %28, ptr %5, align 8
  br label %14, !llvm.loop !7

29:                                               ; preds = %14
  ret void
}

; Function Attrs: nounwind uwtable
define ptr @OSQPVectori_malloc(i64 noundef %0) #0 {
  %2 = alloca i64, align 8
  %3 = alloca ptr, align 8
  store i64 %0, ptr %2, align 8
  %4 = call noalias ptr @malloc(i64 noundef 16) #5
  store ptr %4, ptr %3, align 8
  %5 = load ptr, ptr %3, align 8
  %6 = icmp ne ptr %5, null
  br i1 %6, label %7, label %30

7:                                                ; preds = %1
  %8 = load i64, ptr %2, align 8
  %9 = load ptr, ptr %3, align 8
  %10 = getelementptr inbounds %struct.OSQPVectori_, ptr %9, i32 0, i32 1
  store i64 %8, ptr %10, align 8
  %11 = load i64, ptr %2, align 8
  %12 = icmp ne i64 %11, 0
  br i1 %12, label %13, label %26

13:                                               ; preds = %7
  %14 = load i64, ptr %2, align 8
  %15 = mul i64 %14, 8
  %16 = call noalias ptr @malloc(i64 noundef %15) #5
  %17 = load ptr, ptr %3, align 8
  %18 = getelementptr inbounds %struct.OSQPVectori_, ptr %17, i32 0, i32 0
  store ptr %16, ptr %18, align 8
  %19 = load ptr, ptr %3, align 8
  %20 = getelementptr inbounds %struct.OSQPVectori_, ptr %19, i32 0, i32 0
  %21 = load ptr, ptr %20, align 8
  %22 = icmp ne ptr %21, null
  br i1 %22, label %25, label %23

23:                                               ; preds = %13
  %24 = load ptr, ptr %3, align 8
  call void @free(ptr noundef %24) #6
  store ptr null, ptr %3, align 8
  br label %25

25:                                               ; preds = %23, %13
  br label %29

26:                                               ; preds = %7
  %27 = load ptr, ptr %3, align 8
  %28 = getelementptr inbounds %struct.OSQPVectori_, ptr %27, i32 0, i32 0
  store ptr null, ptr %28, align 8
  br label %29

29:                                               ; preds = %26, %25
  br label %30

30:                                               ; preds = %29, %1
  %31 = load ptr, ptr %3, align 8
  ret ptr %31
}

; Function Attrs: nounwind uwtable
define ptr @OSQPVectori_new(ptr noundef %0, i64 noundef %1) #0 {
  %3 = alloca ptr, align 8
  %4 = alloca ptr, align 8
  %5 = alloca i64, align 8
  %6 = alloca ptr, align 8
  store ptr %0, ptr %4, align 8
  store i64 %1, ptr %5, align 8
  %7 = load i64, ptr %5, align 8
  %8 = call ptr @OSQPVectori_malloc(i64 noundef %7)
  store ptr %8, ptr %6, align 8
  %9 = load ptr, ptr %6, align 8
  %10 = icmp ne ptr %9, null
  br i1 %10, label %12, label %11

11:                                               ; preds = %2
  store ptr null, ptr %3, align 8
  br label %20

12:                                               ; preds = %2
  %13 = load i64, ptr %5, align 8
  %14 = icmp sgt i64 %13, 0
  br i1 %14, label %15, label %18

15:                                               ; preds = %12
  %16 = load ptr, ptr %6, align 8
  %17 = load ptr, ptr %4, align 8
  call void @OSQPVectori_from_raw(ptr noundef %16, ptr noundef %17)
  br label %18

18:                                               ; preds = %15, %12
  %19 = load ptr, ptr %6, align 8
  store ptr %19, ptr %3, align 8
  br label %20

20:                                               ; preds = %18, %11
  %21 = load ptr, ptr %3, align 8
  ret ptr %21
}