; Function Attrs: nounwind memory(readwrite, argmem: read) uwtable
define noalias noundef ptr @OSQPVectori_new(ptr nocapture noundef readonly %0, i64 noundef %1) local_unnamed_addr #1 {
  %3 = tail call noalias dereferenceable_or_null(16) ptr @malloc(i64 noundef 16) #18
  %.not.i = icmp eq ptr %3, null
  br i1 %.not.i, label %OSQPVectori_from_raw.exit, label %4

4:                                                ; preds = %2
  %5 = getelementptr inbounds i8, ptr %3, i64 8
  store i64 %1, ptr %5, align 8
  %.not11.i = icmp eq i64 %1, 0
  br i1 %.not11.i, label %OSQPVectori_malloc.exit.thread9, label %6

6:                                                ; preds = %4
  %7 = shl i64 %1, 3
  %8 = tail call noalias ptr @malloc(i64 noundef %7) #18
  store ptr %8, ptr %3, align 8
  %.not12.i = icmp eq ptr %8, null
  br i1 %.not12.i, label %9, label %OSQPVectori_malloc.exit

9:                                                ; preds = %6
  tail call void @free(ptr noundef nonnull %3) #19
  br label %OSQPVectori_from_raw.exit

OSQPVectori_malloc.exit.thread9:                  ; preds = %4
  store ptr null, ptr %3, align 8
  br label %OSQPVectori_from_raw.exit

OSQPVectori_malloc.exit:                          ; preds = %6
  %10 = icmp sgt i64 %1, 0
  br i1 %10, label %.lr.ph.i, label %OSQPVectori_from_raw.exit

.lr.ph.i:                                         ; preds = %OSQPVectori_malloc.exit, %.lr.ph.i
  %.08.i = phi i64 [ %14, %.lr.ph.i ], [ 0, %OSQPVectori_malloc.exit ]
  %11 = getelementptr inbounds i64, ptr %0, i64 %.08.i
  %12 = load i64, ptr %11, align 8
  %13 = getelementptr inbounds i64, ptr %8, i64 %.08.i
  store i64 %12, ptr %13, align 8
  %14 = add nuw nsw i64 %.08.i, 1
  %exitcond.not.i = icmp eq i64 %14, %1
  br i1 %exitcond.not.i, label %OSQPVectori_from_raw.exit, label %.lr.ph.i, !llvm.loop !7

OSQPVectori_from_raw.exit:                        ; preds = %.lr.ph.i, %2, %9, %OSQPVectori_malloc.exit.thread9, %OSQPVectori_malloc.exit
  %.0 = phi ptr [ %3, %OSQPVectori_malloc.exit ], [ %3, %OSQPVectori_malloc.exit.thread9 ], [ null, %9 ], [ null, %2 ], [ %3, %.lr.ph.i ]
  ret ptr %.0
}